target datalayout = "e-m:e-p270:32:32-p271:32:32-p272:64:64-i64:64-i128:128-f80:128-n8:16:32:64-S128"
target triple = "x86_64-pc-linux-gnu"

%struct.archive_entry = type { ptr, ptr, i32, %struct.aest, i32, %struct.archive_mstring, i64, i64, %struct.archive_mstring, %struct.archive_mstring, %struct.archive_mstring, %struct.archive_mstring, %struct.archive_mstring, i8, ptr, i64, %struct.ae_digest, %struct.archive_acl, ptr, ptr, ptr, ptr, ptr, [12 x i8], i32 }
%struct.aest = type { i64, i32, i64, i32, i64, i32, i64, i32, i64, i64, i32, i64, i64, i32, i64, i64, i64, i32, i64, i64, i64 }
%struct.archive_mstring = type { %struct.archive_string, %struct.archive_string, %struct.archive_wstring, %struct.archive_string, i32 }
%struct.archive_wstring = type { ptr, i64, i64 }
%struct.archive_string = type { ptr, i64, i64 }
%struct.ae_digest = type { [16 x i8], [20 x i8], [20 x i8], [32 x i8], [48 x i8], [64 x i8] }
%struct.archive_acl = type { i32, ptr, ptr, i32, ptr, ptr, i32 }
%struct.ae_sparse = type { ptr, i64, i64 }

; Function Attrs: nounwind uwtable
define dso_local void @archive_entry_sparse_add_entry(ptr noundef %0, i64 noundef %1, i64 noundef %2) #0 {
  %4 = alloca ptr, align 8
  %5 = alloca i64, align 8
  %6 = alloca i64, align 8
  %7 = alloca ptr, align 8
  %8 = alloca i32, align 4
  store ptr %0, ptr %4, align 8, !tbaa !4
  store i64 %1, ptr %5, align 8, !tbaa !31
  store i64 %2, ptr %6, align 8, !tbaa !31
  call void @llvm.lifetime.start.p0(i64 8, ptr %7) #5
  %9 = load i64, ptr %5, align 8, !tbaa !31
  %10 = icmp slt i64 %9, 0
  br i1 %10, label %14, label %11

11:                                               ; preds = %3
  %12 = load i64, ptr %6, align 8, !tbaa !31
  %13 = icmp slt i64 %12, 0
  br i1 %13, label %14, label %15

14:                                               ; preds = %11, %3
  store i32 1, ptr %8, align 4
  br label %112

15:                                               ; preds = %11
  %16 = load i64, ptr %5, align 8, !tbaa !31
  %17 = load i64, ptr %6, align 8, !tbaa !31
  %18 = sub nsw i64 9223372036854775807, %17
  %19 = icmp sgt i64 %16, %18
  br i1 %19, label %27, label %20

20:                                               ; preds = %15
  %21 = load i64, ptr %5, align 8, !tbaa !31
  %22 = load i64, ptr %6, align 8, !tbaa !31
  %23 = add nsw i64 %21, %22
  %24 = load ptr, ptr %4, align 8, !tbaa !4
  %25 = call i64 @archive_entry_size(ptr noundef %24)
  %26 = icmp sgt i64 %23, %25
  br i1 %26, label %27, label %28

27:                                               ; preds = %20, %15
  store i32 1, ptr %8, align 4
  br label %112

28:                                               ; preds = %20
  %29 = load ptr, ptr %4, align 8, !tbaa !4
  %30 = getelementptr inbounds nuw %struct.archive_entry, ptr %29, i32 0, i32 21
  %31 = load ptr, ptr %30, align 8, !tbaa !30
  store ptr %31, ptr %7, align 8, !tbaa !27
  %32 = icmp ne ptr %31, null
  br i1 %32, label %33, label %73

33:                                               ; preds = %28
  %34 = load ptr, ptr %7, align 8, !tbaa !27
  %35 = getelementptr inbounds nuw %struct.ae_sparse, ptr %34, i32 0, i32 1
  %36 = load i64, ptr %35, align 8, !tbaa !32
  %37 = load ptr, ptr %7, align 8, !tbaa !27
  %38 = getelementptr inbounds nuw %struct.ae_sparse, ptr %37, i32 0, i32 2
  %39 = load i64, ptr %38, align 8, !tbaa !33
  %40 = add nsw i64 %36, %39
  %41 = load i64, ptr %5, align 8, !tbaa !31
  %42 = icmp sgt i64 %40, %41
  br i1 %42, label %43, label %44

43:                                               ; preds = %33
  store i32 1, ptr %8, align 4
  br label %112

44:                                               ; preds = %33
  %45 = load ptr, ptr %7, align 8, !tbaa !27
  %46 = getelementptr inbounds nuw %struct.ae_sparse, ptr %45, i32 0, i32 1
  %47 = load i64, ptr %46, align 8, !tbaa !32
  %48 = load ptr, ptr %7, align 8, !tbaa !27
  %49 = getelementptr inbounds nuw %struct.ae_sparse, ptr %48, i32 0, i32 2
  %50 = load i64, ptr %49, align 8, !tbaa !33
  %51 = add nsw i64 %47, %50
  %52 = load i64, ptr %5, align 8, !tbaa !31
  %53 = icmp eq i64 %51, %52
  br i1 %53, label %54, label %72

54:                                               ; preds = %44
  %55 = load ptr, ptr %7, align 8, !tbaa !27
  %56 = getelementptr inbounds nuw %struct.ae_sparse, ptr %55, i32 0, i32 1
  %57 = load i64, ptr %56, align 8, !tbaa !32
  %58 = load ptr, ptr %7, align 8, !tbaa !27
  %59 = getelementptr inbounds nuw %struct.ae_sparse, ptr %58, i32 0, i32 2
  %60 = load i64, ptr %59, align 8, !tbaa !33
  %61 = add nsw i64 %57, %60
  %62 = load i64, ptr %6, align 8, !tbaa !31
  %63 = add nsw i64 %61, %62
  %64 = icmp slt i64 %63, 0
  br i1 %64, label %65, label %66

65:                                               ; preds = %54
  store i32 1, ptr %8, align 4
  br label %112

66:                                               ; preds = %54
  %67 = load i64, ptr %6, align 8, !tbaa !31
  %68 = load ptr, ptr %7, align 8, !tbaa !27
  %69 = getelementptr inbounds nuw %struct.ae_sparse, ptr %68, i32 0, i32 2
  %70 = load i64, ptr %69, align 8, !tbaa !33
  %71 = add nsw i64 %70, %67
  store i64 %71, ptr %69, align 8, !tbaa !33
  store i32 1, ptr %8, align 4
  br label %112

72:                                               ; preds = %44
  br label %73

73:                                               ; preds = %72, %28
  %74 = call noalias ptr @malloc(i64 noundef 24) #6
  store ptr %74, ptr %7, align 8, !tbaa !27
  %75 = icmp eq ptr %74, null
  br i1 %75, label %76, label %77

76:                                               ; preds = %73
  store i32 1, ptr %8, align 4
  br label %112

77:                                               ; preds = %73
  %78 = load i64, ptr %5, align 8, !tbaa !31
  %79 = load ptr, ptr %7, align 8, !tbaa !27
  %80 = getelementptr inbounds nuw %struct.ae_sparse, ptr %79, i32 0, i32 1
  store i64 %78, ptr %80, align 8, !tbaa !32
  %81 = load i64, ptr %6, align 8, !tbaa !31
  %82 = load ptr, ptr %7, align 8, !tbaa !27
  %83 = getelementptr inbounds nuw %struct.ae_sparse, ptr %82, i32 0, i32 2
  store i64 %81, ptr %83, align 8, !tbaa !33
  %84 = load ptr, ptr %7, align 8, !tbaa !27
  %85 = getelementptr inbounds nuw %struct.ae_sparse, ptr %84, i32 0, i32 0
  store ptr null, ptr %85, align 8, !tbaa !25
  %86 = load ptr, ptr %4, align 8, !tbaa !4
  %87 = getelementptr inbounds nuw %struct.archive_entry, ptr %86, i32 0, i32 20
  %88 = load ptr, ptr %87, align 8, !tbaa !9
  %89 = icmp eq ptr %88, null
  br i1 %89, label %90, label %96

90:                                               ; preds = %77
  %91 = load ptr, ptr %7, align 8, !tbaa !27
  %92 = load ptr, ptr %4, align 8, !tbaa !4
  %93 = getelementptr inbounds nuw %struct.archive_entry, ptr %92, i32 0, i32 21
  store ptr %91, ptr %93, align 8, !tbaa !30
  %94 = load ptr, ptr %4, align 8, !tbaa !4
  %95 = getelementptr inbounds nuw %struct.archive_entry, ptr %94, i32 0, i32 20
  store ptr %91, ptr %95, align 8, !tbaa !9
  br label %111

96:                                               ; preds = %77
  %97 = load ptr, ptr %4, align 8, !tbaa !4
  %98 = getelementptr inbounds nuw %struct.archive_entry, ptr %97, i32 0, i32 21
  %99 = load ptr, ptr %98, align 8, !tbaa !30
  %100 = icmp ne ptr %99, null
  br i1 %100, label %101, label %107

101:                                              ; preds = %96
  %102 = load ptr, ptr %7, align 8, !tbaa !27
  %103 = load ptr, ptr %4, align 8, !tbaa !4
  %104 = getelementptr inbounds nuw %struct.archive_entry, ptr %103, i32 0, i32 21
  %105 = load ptr, ptr %104, align 8, !tbaa !30
  %106 = getelementptr inbounds nuw %struct.ae_sparse, ptr %105, i32 0, i32 0
  store ptr %102, ptr %106, align 8, !tbaa !25
  br label %107

107:                                              ; preds = %101, %96
  %108 = load ptr, ptr %7, align 8, !tbaa !27
  %109 = load ptr, ptr %4, align 8, !tbaa !4
  %110 = getelementptr inbounds nuw %struct.archive_entry, ptr %109, i32 0, i32 21
  store ptr %108, ptr %110, align 8, !tbaa !30
  br label %111

111:                                              ; preds = %107, %90
  store i32 0, ptr %8, align 4
  br label %112

112:                                              ; preds = %111, %76, %66, %65, %43, %27, %14
  call void @llvm.lifetime.end.p0(i64 8, ptr %7) #5
  %113 = load i32, ptr %8, align 4
  switch i32 %113, label %115 [
    i32 0, label %114
    i32 1, label %114
  ]

114:                                              ; preds = %112, %112
  ret void

115:                                              ; preds = %112
  unreachable
}