; Function Attrs: nounwind uwtable
define dso_local void @archive_entry_sparse_add_entry(ptr noundef %0, i64 noundef %1, i64 noundef %2) local_unnamed_addr #0 {
  %4 = or i64 %2, %1
  %or.cond.not = icmp slt i64 %4, 0
  %5 = sub nuw nsw i64 9223372036854775807, %2
  %6 = icmp sgt i64 %1, %5
  %or.cond = select i1 %or.cond.not, i1 true, i1 %6
  br i1 %or.cond, label %38, label %7

7:                                                ; preds = %3
  %8 = add nuw nsw i64 %2, %1
  %9 = tail call i64 @archive_entry_size(ptr noundef %0) #5
  %10 = icmp sgt i64 %8, %9
  br i1 %10, label %38, label %11

11:                                               ; preds = %7
  %12 = getelementptr inbounds nuw i8, ptr %0, i64 1144
  %13 = load ptr, ptr %12, align 8, !tbaa !27
  %.not = icmp eq ptr %13, null
  br i1 %.not, label %25, label %14

14:                                               ; preds = %11
  %15 = getelementptr inbounds nuw i8, ptr %13, i64 8
  %16 = load i64, ptr %15, align 8, !tbaa !28
  %17 = getelementptr inbounds nuw i8, ptr %13, i64 16
  %18 = load i64, ptr %17, align 8, !tbaa !29
  %19 = add nsw i64 %18, %16
  %20 = icmp sgt i64 %19, %1
  br i1 %20, label %38, label %21

21:                                               ; preds = %14
  %22 = icmp eq i64 %19, %1
  br i1 %22, label %23, label %25

23:                                               ; preds = %21
  %24 = add nsw i64 %18, %2
  store i64 %24, ptr %17, align 8, !tbaa !29
  br label %38

25:                                               ; preds = %21, %11
  %26 = tail call noalias dereferenceable_or_null(24) ptr @malloc(i64 noundef 24) #6
  %27 = icmp eq ptr %26, null
  br i1 %27, label %38, label %28

28:                                               ; preds = %25
  %29 = getelementptr inbounds nuw i8, ptr %26, i64 8
  store i64 %1, ptr %29, align 8, !tbaa !28
  %30 = getelementptr inbounds nuw i8, ptr %26, i64 16
  store i64 %2, ptr %30, align 8, !tbaa !29
  store ptr null, ptr %26, align 8, !tbaa !23
  %31 = getelementptr inbounds nuw i8, ptr %0, i64 1136
  %32 = load ptr, ptr %31, align 8, !tbaa !4
  %33 = icmp eq ptr %32, null
  br i1 %33, label %34, label %35

34:                                               ; preds = %28
  store ptr %26, ptr %12, align 8, !tbaa !27
  store ptr %26, ptr %31, align 8, !tbaa !4
  br label %38

35:                                               ; preds = %28
  br i1 %.not, label %37, label %36

36:                                               ; preds = %35
  store ptr %26, ptr %13, align 8, !tbaa !23
  br label %37

37:                                               ; preds = %36, %35
  store ptr %26, ptr %12, align 8, !tbaa !27
  br label %38

38:                                               ; preds = %34, %37, %25, %14, %7, %3, %23
  ret void
}